; ModuleID = '40/2527.c'
source_filename = "40/2527.c"
target datalayout = "e-m:e-p270:32:32-p271:32:32-p272:64:64-i64:64-f80:128-n8:16:32:64-S128"
target triple = "x86_64-pc-linux-gnu"

@.str = private unnamed_addr constant [4 x i8] c"%lf\00", align 1
@.str.1 = private unnamed_addr constant [6 x i8] c"%.4f\0A\00", align 1
@.str.2 = private unnamed_addr constant [14 x i8] c"Invalid input\00", align 1

; Function Attrs: noinline nounwind uwtable
define dso_local i32 @main() #0 {
  %1 = alloca i32, align 4
  %2 = alloca double, align 8
  %3 = alloca double, align 8
  %4 = alloca double, align 8
  %5 = alloca double, align 8
  %6 = alloca double, align 8
  %7 = alloca double, align 8
  %8 = alloca double, align 8
  %9 = alloca double, align 8
  %10 = alloca double, align 8
  %11 = alloca double, align 8
  %12 = alloca double, align 8
  store i32 0, i32* %1, align 4
  store double 0x400921FB4D12D84A, double* %12, align 8
  %13 = call i32 (i8*, ...) @__isoc99_scanf(i8* getelementptr inbounds ([4 x i8], [4 x i8]* @.str, i64 0, i64 0), double* %2)
  %14 = call i32 (i8*, ...) @__isoc99_scanf(i8* getelementptr inbounds ([4 x i8], [4 x i8]* @.str, i64 0, i64 0), double* %3)
  %15 = call i32 (i8*, ...) @__isoc99_scanf(i8* getelementptr inbounds ([4 x i8], [4 x i8]* @.str, i64 0, i64 0), double* %4)
  %16 = call i32 (i8*, ...) @__isoc99_scanf(i8* getelementptr inbounds ([4 x i8], [4 x i8]* @.str, i64 0, i64 0), double* %5)
  %17 = call i32 (i8*, ...) @__isoc99_scanf(i8* getelementptr inbounds ([4 x i8], [4 x i8]* @.str, i64 0, i64 0), double* %10)
  %18 = load double, double* %2, align 8
  %19 = load double, double* %3, align 8
  %20 = fadd double %18, %19
  %21 = load double, double* %4, align 8
  %22 = fadd double %20, %21
  %23 = load double, double* %5, align 8
  %24 = fadd double %22, %23
  %25 = fdiv double %24, 2.000000e+00
  store double %25, double* %6, align 8
  %26 = load double, double* %10, align 8
  %27 = fdiv double %26, 1.800000e+02
  %28 = fmul double %27, 0x400921FB4D12D84A
  %29 = fdiv double %28, 2.000000e+00
  store double %29, double* %11, align 8
  %30 = load double, double* %11, align 8
  %31 = call double @cos(double %30) #3
  store double %31, double* %8, align 8
  %32 = load double, double* %6, align 8
  %33 = load double, double* %2, align 8
  %34 = fsub double %32, %33
  %35 = load double, double* %6, align 8
  %36 = load double, double* %3, align 8
  %37 = fsub double %35, %36
  %38 = fmul double %34, %37
  %39 = load double, double* %6, align 8
  %40 = load double, double* %4, align 8
  %41 = fsub double %39, %40
  %42 = fmul double %38, %41
  %43 = load double, double* %6, align 8
  %44 = load double, double* %5, align 8
  %45 = fsub double %43, %44
  %46 = fmul double %42, %45
  %47 = load double, double* %2, align 8
  %48 = load double, double* %3, align 8
  %49 = fmul double %47, %48
  %50 = load double, double* %4, align 8
  %51 = fmul double %49, %50
  %52 = load double, double* %5, align 8
  %53 = fmul double %51, %52
  %54 = load double, double* %8, align 8
  %55 = fmul double %53, %54
  %56 = load double, double* %8, align 8
  %57 = fmul double %55, %56
  %58 = fsub double %46, %57
  store double %58, double* %7, align 8
  %59 = load double, double* %7, align 8
  %60 = fcmp oge double %59, 0.000000e+00
  br i1 %60, label %61, label %66

61:                                               ; preds = %0
  %62 = load double, double* %7, align 8
  %63 = call double @sqrt(double %62) #3
  store double %63, double* %9, align 8
  %64 = load double, double* %9, align 8
  %65 = call i32 (i8*, ...) @printf(i8* getelementptr inbounds ([6 x i8], [6 x i8]* @.str.1, i64 0, i64 0), double %64)
  br label %68

66:                                               ; preds = %0
  %67 = call i32 (i8*, ...) @printf(i8* getelementptr inbounds ([14 x i8], [14 x i8]* @.str.2, i64 0, i64 0))
  br label %68

68:                                               ; preds = %66, %61
  ret i32 0
}

declare dso_local i32 @__isoc99_scanf(i8*, ...) #1

; Function Attrs: nounwind
declare dso_local double @cos(double) #2

; Function Attrs: nounwind
declare dso_local double @sqrt(double) #2

declare dso_local i32 @printf(i8*, ...) #1


!llvm.module.flags = !{!0}
!llvm.ident = !{!1}

!0 = !{i32 1, !"wchar_size", i32 4}
!1 = !{!"clang version 10.0.0-4ubuntu1 "}
